; Function Attrs: mustprogress nounwind uwtable
define internal fastcc void @"_ZN7FinallyIZN3nix11runProgram2ERKNS0_10RunOptionsEE3$_2ED2Ev"(ptr %.0.val) unnamed_addr #5 align 2 personality ptr @__gxx_personality_v0 {
  %.sroa.0.0.copyload.i.i = load i64, ptr %.0.val, align 8
  %.not.i = icmp eq i64 %.sroa.0.0.copyload.i.i, 0
  br i1 %.not.i, label %"_ZZN3nix11runProgram2ERKNS_10RunOptionsEENK3$_2clEv.exit", label %1

1:                                                ; preds = %0
  invoke void @_ZNSt6thread4joinEv(ptr noundef nonnull align 8 dereferenceable(8) %.0.val)
          to label %"_ZZN3nix11runProgram2ERKNS_10RunOptionsEENK3$_2clEv.exit" unwind label %2

"_ZZN3nix11runProgram2ERKNS_10RunOptionsEENK3$_2clEv.exit": ; preds = %0, %1
  ret void

2:                                                ; preds = %1
  %3 = landingpad { ptr, i32 }
          catch ptr null
  %4 = extractvalue { ptr, i32 } %3, 0
  tail call void @__clang_call_terminate(ptr %4) #33
  unreachable
}